; Function Attrs: mustprogress uwtable
define void @_ZN3zmq9scatter_tC2EPNS_5ctx_tEji(ptr noundef nonnull align 8 dereferenceable(1880) %this, ptr noundef %parent_, i32 noundef %tid_, i32 noundef %sid_) unnamed_addr #0 align 2 personality ptr @__gxx_personality_v0 {
entry:
  tail call void @_ZN3zmq13socket_base_tC2EPNS_5ctx_tEjib(ptr noundef nonnull align 8 dereferenceable(1825) %this, ptr noundef %parent_, i32 noundef %tid_, i32 noundef %sid_, i1 noundef zeroext true)
  store ptr getelementptr inbounds ({ [47 x ptr], [4 x ptr], [7 x ptr], [8 x ptr] }, ptr @_ZTVN3zmq9scatter_tE, i64 0, i32 0, i64 2), ptr %this, align 8
  %add.ptr = getelementptr inbounds i8, ptr %this, i64 1448
  store ptr getelementptr inbounds ({ [47 x ptr], [4 x ptr], [7 x ptr], [8 x ptr] }, ptr @_ZTVN3zmq9scatter_tE, i64 0, i32 1, i64 2), ptr %add.ptr, align 8
  %add.ptr2 = getelementptr inbounds i8, ptr %this, i64 1464
  store ptr getelementptr inbounds ({ [47 x ptr], [4 x ptr], [7 x ptr], [8 x ptr] }, ptr @_ZTVN3zmq9scatter_tE, i64 0, i32 2, i64 2), ptr %add.ptr2, align 8
  %add.ptr3 = getelementptr inbounds i8, ptr %this, i64 1472
  store ptr getelementptr inbounds ({ [47 x ptr], [4 x ptr], [7 x ptr], [8 x ptr] }, ptr @_ZTVN3zmq9scatter_tE, i64 0, i32 3, i64 2), ptr %add.ptr3, align 8
  %_lb = getelementptr inbounds i8, ptr %this, i64 1832
  invoke void @_ZN3zmq4lb_tC1Ev(ptr noundef nonnull align 8 dereferenceable(42) %_lb)
          to label %invoke.cont unwind label %lpad

invoke.cont:                                      ; preds = %entry
  %type = getelementptr inbounds i8, ptr %this, i64 332
  store i8 17, ptr %type, align 4
  ret void

lpad:                                             ; preds = %entry
  %0 = landingpad { ptr, i32 }
          cleanup
  tail call void @_ZN3zmq13socket_base_tD2Ev(ptr noundef nonnull align 8 dereferenceable(1825) %this) #7
  resume { ptr, i32 } %0
}